(dp1
Vsub
p2
(dp3
VuniqueIdentifier
p4
Vda029157-efaf-4578-b7ce-1d74817673a9
p5
sVcn
p6
VSmeagol Gone
p7
sVdc
p8
V7477
p9
sVuid
p10
Vgollum
p11
ssVroles
p12
VLearner
p13
sVaccess_token
p14
VSIF_HMACSHA256 ZXlKaGJHY2lPaUpJVXpJMU5pSXNJblI1Y0NJNklrcFhWQ0o5LmV5SnBjM01pT2lKb2RIUndjem92TDJsa1pXNTBhWFI1TG1Gd2FTNW9iV2hqYnk1amIyMGlMQ0poZFdRaU9pSm9kSFJ3T2k4dmQzZDNMbWh0YUdOdkxtTnZiU0lzSW1saGRDSTZNVFExTURnd01qYzJNQ3dpYzNWaUlqb2lZMjVjZFRBd00yUlRiV1ZoWjI5c0lFZHZibVVzZFdsa1hIVXdNRE5rWjI5c2JIVnRMSFZ1YVhGMVpVbGtaVzUwYVdacFpYSmNkVEF3TTJSa1lUQXlPVEUxTnkxbFptRm1MVFExTnpndFlqZGpaUzB4WkRjME9ERTNOamN6WVRrc1pHTmNkVEF3TTJRM05EYzNJaXdpYUhSMGNEb3ZMM2QzZHk1cGJYTm5iRzlpWVd3dWIzSm5MMmx0YzNCMWNtd3ZiR2x6TDNZeEwzWnZZMkZpTDNCbGNuTnZiaUk2V3lKTVpXRnlibVZ5SWwwc0ltTnNhV1Z1ZEY5cFpDSTZJbVZtTldZM1lUQXpMVFU0WlRndE5EaGtOeTFoTXpoaExXRmlZbVF5TmprMlltUmlOaTVvYldoamJ5NWpiMjBpTENKbGVIQWlPakUwTlRBNE9EZzNOakI5LkdKLUZwYW9NcjVmSlQwTDlDMVJ5Wkc1T2NTdDBpMGNOUEZOVjV5WHRONk06Ykd5SW53TG1iWlVaajdORUJjSnYvK3Y3N3RPdllrSkE0QmNETXdCS3BKYz0K
p15
sVexpires_in
p16
I86000
sVpreferred_username
p17
Vgollum
p18
sVref_id
p19
Vda029157-efaf-4578-b7ce-1d74817673a9
p20
sVrefresh_token
p21
VeyJhbGciOiJIUzI1NiIsInR5cCI6IkpXVCJ9.eyJpc3MiOiJodHRwczovL2lkZW50aXR5LmFwaS5obWhjby5jb20iLCJhdWQiOiJodHRwOi8vd3d3LmhtaGNvLmNvbSIsImlhdCI6MTQ1MDgwMjc2MCwic3ViIjoiY25cdTAwM2RTbWVhZ29sIEdvbmUsdWlkXHUwMDNkZ29sbHVtLHVuaXF1ZUlkZW50aWZpZXJcdTAwM2RkYTAyOTE1Ny1lZmFmLTQ1NzgtYjdjZS0xZDc0ODE3NjczYTksZGNcdTAwM2Q3NDc3IiwiaHR0cDovL3d3dy5pbXNnbG9iYWwub3JnL2ltc3B1cmwvbGlzL3YxL3ZvY2FiL3BlcnNvbiI6WyJMZWFybmVyIl0sImNsaWVudF9pZCI6ImVmNWY3YTAzLTU4ZTgtNDhkNy1hMzhhLWFiYmQyNjk2YmRiNi5obWhjby5jb20iLCJleHAiOjE0NTA4ODkxNjB9.sbGfj1k54dq3DebhXTijtaPEwHDfEs-izxErY-QOvho
p22
sVname
p23
VSmeagol Gone
p24
s.