(dp1
Vsub
p2
Vcn=Sauron Baraddur,uid=sauron,uniqueIdentifier=ab1e436e-8177-4139-8e2d-52a6f7a8be27,dc=1
p3
sVroles
p4
VInstructor
p5
sVaccess_token
p6
VSIF_HMACSHA256 ZXlKaGJHY2lPaUpJVXpJMU5pSXNJblI1Y0NJNklrcFhWQ0o5LmV5SnBjM01pT2lKb2RIUndjem92TDJsa1pXNTBhWFI1TG1Gd2FTNW9iV2hqYnk1amIyMGlMQ0poZFdRaU9pSm9kSFJ3T2k4dmQzZDNMbWh0YUdOdkxtTnZiU0lzSW1saGRDSTZNVFExTVRNeU16ZzBNQ3dpYzNWaUlqb2lZMjVjZFRBd00yUlRZWFZ5YjI0Z1FtRnlZV1JrZFhJc2RXbGtYSFV3TUROa2MyRjFjbTl1TEhWdWFYRjFaVWxrWlc1MGFXWnBaWEpjZFRBd00yUmhZakZsTkRNMlpTMDRNVGMzTFRReE16a3RPR1V5WkMwMU1tRTJaamRoT0dKbE1qY3NaR05jZFRBd00yUXhJaXdpYUhSMGNEb3ZMM2QzZHk1cGJYTm5iRzlpWVd3dWIzSm5MMmx0YzNCMWNtd3ZiR2x6TDNZeEwzWnZZMkZpTDNCbGNuTnZiaUk2V3lKSmJuTjBjblZqZEc5eUlsMHNJbU5zYVdWdWRGOXBaQ0k2SW1WbU5XWTNZVEF6TFRVNFpUZ3RORGhrTnkxaE16aGhMV0ZpWW1ReU5qazJZbVJpTmk1b2JXaGpieTVqYjIwaUxDSmxlSEFpT2pFME5URTBNRGs0TkRCOS5JUWJMdUlHUllqSUwzeWxhZG5HTGdqN2R2dl9ORkFXRzJmVGIyTnVTYmVNOkdveDdVM1RnSWpkYm8zbVhSUldwME5mdlliTVBJUlRNc3lWU1lkNm9Pb3M9Cg==
p7
sVexpires_in
p8
I86000
sVpreferred_username
p9
Vsauron
p10
sVref_id
p11
Vab1e436e-8177-4139-8e2d-52a6f7a8be27
p12
sVrefresh_token
p13
VeyJhbGciOiJIUzI1NiIsInR5cCI6IkpXVCJ9.eyJpc3MiOiJodHRwczovL2lkZW50aXR5LmFwaS5obWhjby5jb20iLCJhdWQiOiJodHRwOi8vd3d3LmhtaGNvLmNvbSIsImlhdCI6MTQ1MTMyMzg0MCwic3ViIjoiY25cdTAwM2RTYXVyb24gQmFyYWRkdXIsdWlkXHUwMDNkc2F1cm9uLHVuaXF1ZUlkZW50aWZpZXJcdTAwM2RhYjFlNDM2ZS04MTc3LTQxMzktOGUyZC01MmE2ZjdhOGJlMjcsZGNcdTAwM2QxIiwiaHR0cDovL3d3dy5pbXNnbG9iYWwub3JnL2ltc3B1cmwvbGlzL3YxL3ZvY2FiL3BlcnNvbiI6WyJJbnN0cnVjdG9yIl0sImNsaWVudF9pZCI6ImVmNWY3YTAzLTU4ZTgtNDhkNy1hMzhhLWFiYmQyNjk2YmRiNi5obWhjby5jb20iLCJleHAiOjE0NTE0MTAyNDB9.UkvjeVZM1g_UX6XeT1_3QBsEWGTD0Z9Sxt8JSKeu2Xk
p14
sVname
p15
VSauron Baraddur
p16
s.