(dp1
Vsub
p2
(dp3
VuniqueIdentifier
p4
Vab1e436e-8177-4139-8e2d-52a6f7a8be27
p5
sVcn
p6
VSauron Baraddur
p7
sVdc
p8
V1
sVuid
p9
Vsauron
p10
ssVroles
p11
VInstructor
p12
sVaccess_token
p13
VSIF_HMACSHA256 ZXlKaGJHY2lPaUpJVXpJMU5pSXNJblI1Y0NJNklrcFhWQ0o5LmV5SnBjM01pT2lKb2RIUndjem92TDJsa1pXNTBhWFI1TG1Gd2FTNW9iV2hqYnk1amIyMGlMQ0poZFdRaU9pSm9kSFJ3T2k4dmQzZDNMbWh0YUdOdkxtTnZiU0lzSW1saGRDSTZNVFExTURrME16QTJOaXdpYzNWaUlqb2lZMjVjZFRBd00yUlRZWFZ5YjI0Z1FtRnlZV1JrZFhJc2RXbGtYSFV3TUROa2MyRjFjbTl1TEhWdWFYRjFaVWxrWlc1MGFXWnBaWEpjZFRBd00yUmhZakZsTkRNMlpTMDRNVGMzTFRReE16a3RPR1V5WkMwMU1tRTJaamRoT0dKbE1qY3NaR05jZFRBd00yUXhJaXdpYUhSMGNEb3ZMM2QzZHk1cGJYTm5iRzlpWVd3dWIzSm5MMmx0YzNCMWNtd3ZiR2x6TDNZeEwzWnZZMkZpTDNCbGNuTnZiaUk2V3lKSmJuTjBjblZqZEc5eUlsMHNJbU5zYVdWdWRGOXBaQ0k2SW1WbU5XWTNZVEF6TFRVNFpUZ3RORGhrTnkxaE16aGhMV0ZpWW1ReU5qazJZbVJpTmk1b2JXaGpieTVqYjIwaUxDSmxlSEFpT2pFME5URXdNamt3TmpaOS5fTEpKeW16cXdVa3p0OElyb1FPOVVsbFpkalRPcVlzRTBRYWduLW5oQi1ZOjRxTGMxWG1MTDVUeVpMOXlDY2dlSjlxWGttZDVqQW0wdEJVRWNhNkZEam89Cg==
p14
sVexpires_in
p15
I86000
sVpreferred_username
p16
Vsauron
p17
sVref_id
p18
Vab1e436e-8177-4139-8e2d-52a6f7a8be27
p19
sVrefresh_token
p20
VeyJhbGciOiJIUzI1NiIsInR5cCI6IkpXVCJ9.eyJpc3MiOiJodHRwczovL2lkZW50aXR5LmFwaS5obWhjby5jb20iLCJhdWQiOiJodHRwOi8vd3d3LmhtaGNvLmNvbSIsImlhdCI6MTQ1MDk0MzA2Niwic3ViIjoiY25cdTAwM2RTYXVyb24gQmFyYWRkdXIsdWlkXHUwMDNkc2F1cm9uLHVuaXF1ZUlkZW50aWZpZXJcdTAwM2RhYjFlNDM2ZS04MTc3LTQxMzktOGUyZC01MmE2ZjdhOGJlMjcsZGNcdTAwM2QxIiwiaHR0cDovL3d3dy5pbXNnbG9iYWwub3JnL2ltc3B1cmwvbGlzL3YxL3ZvY2FiL3BlcnNvbiI6WyJJbnN0cnVjdG9yIl0sImNsaWVudF9pZCI6ImVmNWY3YTAzLTU4ZTgtNDhkNy1hMzhhLWFiYmQyNjk2YmRiNi5obWhjby5jb20iLCJleHAiOjE0NTEwMjk0NjZ9.iigwnHUkgAebqR8SqzRLyys5t18l9p_mrQhNj9zpe48
p21
sVname
p22
VSauron Baraddur
p23
s.